target datalayout = "e-m:e-p270:32:32-p271:32:32-p272:64:64-i64:64-i128:128-f80:128-n8:16:32:64-S128"
target triple = "x86_64-pc-linux-gnu"

%"class.arrow::SmallBasicDecimal.6" = type { i64 }
%"class.arrow::BasicDecimal64" = type { %"class.arrow::SmallBasicDecimal.6" }

; Function Attrs: mustprogress nounwind uwtable
define linkonce_odr void @_ZN5arrow17SmallBasicDecimalIlEC2IllEET_(ptr noundef nonnull align 8 dereferenceable(8) %0, i64 noundef %1) unnamed_addr #0 comdat align 2 {
  %3 = alloca ptr, align 8
  %4 = alloca i64, align 8
  store ptr %0, ptr %3, align 8, !tbaa !34
  store i64 %1, ptr %4, align 8, !tbaa !8
  %5 = load ptr, ptr %3, align 8
  %6 = getelementptr inbounds nuw %"class.arrow::SmallBasicDecimal.6", ptr %5, i32 0, i32 0
  %7 = load i64, ptr %4, align 8, !tbaa !8
  store i64 %7, ptr %6, align 8, !tbaa !36
  ret void
}

; Function Attrs: inlinehint mustprogress nounwind uwtable
define linkonce_odr void @_ZN5arrow14BasicDecimal64CI2NS_17SmallBasicDecimalIlEEIllEET_(ptr noundef nonnull align 8 dereferenceable(8) %0, i64 noundef %1) unnamed_addr #3 comdat align 2 {
  %3 = alloca ptr, align 8
  %4 = alloca i64, align 8
  store ptr %0, ptr %3, align 8, !tbaa !92
  store i64 %1, ptr %4, align 8, !tbaa !8
  %5 = load ptr, ptr %3, align 8
  %6 = load i64, ptr %4, align 8, !tbaa !8
  call void @_ZN5arrow17SmallBasicDecimalIlEC2IllEET_(ptr noundef nonnull align 8 dereferenceable(8) %5, i64 noundef %6) #12
  ret void
}

; Function Attrs: mustprogress nounwind uwtable
define noundef i32 @_ZNK5arrow14BasicDecimal646DivideERKS0_PS0_S3_(ptr noundef nonnull align 8 dereferenceable(8) %0, ptr noundef nonnull align 8 dereferenceable(8) %1, ptr noundef %2, ptr noundef %3) #0 align 2 {
  %5 = alloca i32, align 4
  %6 = alloca ptr, align 8
  %7 = alloca ptr, align 8
  %8 = alloca ptr, align 8
  %9 = alloca ptr, align 8
  %10 = alloca %"class.arrow::BasicDecimal64", align 8
  %11 = alloca %"class.arrow::BasicDecimal64", align 8
  store ptr %0, ptr %6, align 8, !tbaa !92
  store ptr %1, ptr %7, align 8, !tbaa !92
  store ptr %2, ptr %8, align 8, !tbaa !92
  store ptr %3, ptr %9, align 8, !tbaa !92
  %12 = load ptr, ptr %6, align 8
  %13 = load ptr, ptr %7, align 8, !tbaa !92
  %14 = getelementptr inbounds nuw %"class.arrow::SmallBasicDecimal.6", ptr %13, i32 0, i32 0
  %15 = load i64, ptr %14, align 8, !tbaa !36
  %16 = icmp eq i64 %15, 0
  br i1 %16, label %17, label %18

17:                                               ; preds = %4
  store i32 1, ptr %5, align 4
  br label %37

18:                                               ; preds = %4
  call void @llvm.lifetime.start.p0(i64 8, ptr %10) #12
  %19 = getelementptr inbounds nuw %"class.arrow::SmallBasicDecimal.6", ptr %12, i32 0, i32 0
  %20 = load i64, ptr %19, align 8, !tbaa !36
  %21 = load ptr, ptr %7, align 8, !tbaa !92
  %22 = getelementptr inbounds nuw %"class.arrow::SmallBasicDecimal.6", ptr %21, i32 0, i32 0
  %23 = load i64, ptr %22, align 8, !tbaa !36
  %24 = sdiv i64 %20, %23
  call void @_ZN5arrow14BasicDecimal64CI2NS_17SmallBasicDecimalIlEEIllEET_(ptr noundef nonnull align 8 dereferenceable(8) %10, i64 noundef %24) #12
  %25 = load ptr, ptr %8, align 8, !tbaa !92
  call void @llvm.memcpy.p0.p0.i64(ptr align 8 %25, ptr align 8 %10, i64 8, i1 false)
  call void @llvm.lifetime.end.p0(i64 8, ptr %10) #12
  %26 = load ptr, ptr %9, align 8, !tbaa !92
  %27 = icmp ne ptr %26, null
  br i1 %27, label %28, label %36

28:                                               ; preds = %18
  call void @llvm.lifetime.start.p0(i64 8, ptr %11) #12
  %29 = getelementptr inbounds nuw %"class.arrow::SmallBasicDecimal.6", ptr %12, i32 0, i32 0
  %30 = load i64, ptr %29, align 8, !tbaa !36
  %31 = load ptr, ptr %7, align 8, !tbaa !92
  %32 = getelementptr inbounds nuw %"class.arrow::SmallBasicDecimal.6", ptr %31, i32 0, i32 0
  %33 = load i64, ptr %32, align 8, !tbaa !36
  %34 = srem i64 %30, %33
  call void @_ZN5arrow14BasicDecimal64CI2NS_17SmallBasicDecimalIlEEIllEET_(ptr noundef nonnull align 8 dereferenceable(8) %11, i64 noundef %34) #12
  %35 = load ptr, ptr %9, align 8, !tbaa !92
  call void @llvm.memcpy.p0.p0.i64(ptr align 8 %35, ptr align 8 %11, i64 8, i1 false)
  call void @llvm.lifetime.end.p0(i64 8, ptr %11) #12
  br label %36

36:                                               ; preds = %28, %18
  store i32 0, ptr %5, align 4
  br label %37

37:                                               ; preds = %36, %17
  %38 = load i32, ptr %5, align 4
  ret i32 %38
}

; Function Attrs: mustprogress nounwind uwtable
define linkonce_odr noundef ptr @_ZN5arrow13DecimalTraitsINS_14BasicDecimal64EE13powers_of_tenEv() #0 comdat align 2 {
  ret ptr @_ZN5arrowL21kDecimal64PowersOfTenE
}

; Function Attrs: mustprogress uwtable
define void @_ZNK5arrow14BasicDecimal6419GetWholeAndFractionEiPS0_S1_(ptr noundef nonnull align 8 dereferenceable(8) %0, i32 noundef %1, ptr noundef %2, ptr noundef %3) #6 align 2 {
  %5 = alloca ptr, align 8
  %6 = alloca i32, align 4
  %7 = alloca ptr, align 8
  %8 = alloca ptr, align 8
  %9 = alloca %"class.arrow::BasicDecimal64", align 8
  %10 = alloca i32, align 4
  store ptr %0, ptr %5, align 8, !tbaa !92
  store i32 %1, ptr %6, align 4, !tbaa !30
  store ptr %2, ptr %7, align 8, !tbaa !92
  store ptr %3, ptr %8, align 8, !tbaa !92
  %11 = load ptr, ptr %5, align 8
  br label %12

12:                                               ; preds = %13, %4
  br i1 false, label %13, label %14

13:                                               ; preds = %12
  br label %12, !llvm.loop !94

14:                                               ; preds = %12
  br label %15

15:                                               ; preds = %16, %14
  br i1 false, label %16, label %17

16:                                               ; preds = %15
  br label %15, !llvm.loop !95

17:                                               ; preds = %15
  br label %18

18:                                               ; preds = %19, %17
  br i1 false, label %19, label %20

19:                                               ; preds = %18
  br label %18, !llvm.loop !96

20:                                               ; preds = %18
  br label %21

21:                                               ; preds = %22, %20
  br i1 false, label %22, label %23

22:                                               ; preds = %21
  br label %21, !llvm.loop !97

23:                                               ; preds = %21
  br label %24

24:                                               ; preds = %25, %23
  br i1 false, label %25, label %26

25:                                               ; preds = %24
  br label %24, !llvm.loop !98

26:                                               ; preds = %24
  br label %27

27:                                               ; preds = %28, %26
  br i1 false, label %28, label %29

28:                                               ; preds = %27
  br label %27, !llvm.loop !99

29:                                               ; preds = %27
  call void @llvm.lifetime.start.p0(i64 8, ptr %9) #12
  %30 = call noundef ptr @_ZN5arrow13DecimalTraitsINS_14BasicDecimal64EE13powers_of_tenEv()
  %31 = load i32, ptr %6, align 4, !tbaa !30
  %32 = sext i32 %31 to i64
  %33 = getelementptr inbounds %"class.arrow::BasicDecimal64", ptr %30, i64 %32
  call void @llvm.memcpy.p0.p0.i64(ptr align 8 %9, ptr align 8 %33, i64 8, i1 false)
  call void @llvm.lifetime.start.p0(i64 4, ptr %10) #12
  %34 = load ptr, ptr %7, align 8, !tbaa !92
  %35 = load ptr, ptr %8, align 8, !tbaa !92
  %36 = call noundef i32 @_ZNK5arrow14BasicDecimal646DivideERKS0_PS0_S3_(ptr noundef nonnull align 8 dereferenceable(8) %11, ptr noundef nonnull align 8 dereferenceable(8) %9, ptr noundef %34, ptr noundef %35)
  store i32 %36, ptr %10, align 4, !tbaa !50
  br label %37

37:                                               ; preds = %38, %29
  br i1 false, label %38, label %39

38:                                               ; preds = %37
  br label %37, !llvm.loop !100

39:                                               ; preds = %37
  br label %40

40:                                               ; preds = %41, %39
  br i1 false, label %41, label %42

41:                                               ; preds = %40
  br label %40, !llvm.loop !101

42:                                               ; preds = %40
  br label %43

43:                                               ; preds = %44, %42
  br i1 false, label %44, label %45

44:                                               ; preds = %43
  br label %43, !llvm.loop !102

45:                                               ; preds = %43
  call void @llvm.lifetime.end.p0(i64 4, ptr %10) #12
  call void @llvm.lifetime.end.p0(i64 8, ptr %9) #12
  ret void
}