; Function Attrs: mustprogress nofree norecurse nosync nounwind willreturn memory(argmem: readwrite) uwtable
define void @_ZNK5arrow14BasicDecimal6419GetWholeAndFractionEiPS0_S1_(ptr noundef nonnull readonly align 8 captures(none) dereferenceable(8) %0, i32 noundef %1, ptr noundef writeonly captures(none) %2, ptr noundef writeonly captures(address_is_null) %3) local_unnamed_addr #5 align 2 {
  %5 = sext i32 %1 to i64
  %6 = getelementptr inbounds %"class.arrow::BasicDecimal64", ptr @_ZN5arrowL21kDecimal64PowersOfTenE, i64 %5
  %7 = load i64, ptr %6, align 8
  %8 = icmp eq i64 %7, 0
  br i1 %8, label %_ZNK5arrow14BasicDecimal646DivideERKS0_PS0_S3_.exit, label %9

9:                                                ; preds = %4
  %10 = load i64, ptr %0, align 8, !tbaa !13
  %11 = sdiv i64 %10, %7
  store i64 %11, ptr %2, align 8
  %.not.i = icmp eq ptr %3, null
  br i1 %.not.i, label %_ZNK5arrow14BasicDecimal646DivideERKS0_PS0_S3_.exit, label %12

12:                                               ; preds = %9
  %13 = load i64, ptr %0, align 8, !tbaa !13
  %14 = srem i64 %13, %7
  store i64 %14, ptr %3, align 8
  br label %_ZNK5arrow14BasicDecimal646DivideERKS0_PS0_S3_.exit

_ZNK5arrow14BasicDecimal646DivideERKS0_PS0_S3_.exit: ; preds = %4, %9, %12
  ret void
}